target datalayout = "e-m:e-p270:32:32-p271:32:32-p272:64:64-i64:64-i128:128-f80:128-n8:16:32:64-S128"
target triple = "x86_64-unknown-linux-gnu"

%"struct.pbrt::StatIntDistribution" = type { i64, i64, i64, i64 }
%class.anon.164 = type { i8 }

@_ZN4pbrtL10pathLengthE = internal thread_local global %"struct.pbrt::StatIntDistribution" { i64 0, i64 0, i64 9223372036854775807, i64 -9223372036854775808 }, align 8
@.str.145 = private unnamed_addr constant [23 x i8] c"Integrator/Path length\00", align 1

; Function Attrs: mustprogress nounwind uwtable
define linkonce_odr dso_local noundef i64 @_ZNSt14numeric_limitsIlE3minEv() #2 comdat align 2 {
entry:
  ret i64 -9223372036854775808
}

; Function Attrs: mustprogress nounwind uwtable
define linkonce_odr dso_local noundef i64 @_ZNSt14numeric_limitsIlE6lowestEv() #2 comdat align 2 {
entry:
  %call = call noundef i64 @_ZNSt14numeric_limitsIlE3minEv() #14
  ret i64 %call
}

; Function Attrs: mustprogress nounwind uwtable
define linkonce_odr dso_local noundef i64 @_ZNSt14numeric_limitsIlE3maxEv() #2 comdat align 2 {
entry:
  ret i64 9223372036854775807
}

; Function Attrs: mustprogress uwtable
define internal void @"_ZNK4pbrt4$_31clERNS_16StatsAccumulatorE"(ptr noundef nonnull align 1 dereferenceable(1) %this, ptr noundef nonnull align 8 dereferenceable(8) %accum) #1 align 2 {
entry:
  %this.addr = alloca ptr, align 8
  %accum.addr = alloca ptr, align 8
  store ptr %this, ptr %this.addr, align 8
  store ptr %accum, ptr %accum.addr, align 8
  %0 = load ptr, ptr %accum.addr, align 8
  %1 = call align 8 ptr @llvm.threadlocal.address.p0(ptr align 8 @_ZN4pbrtL10pathLengthE)
  %sum = getelementptr inbounds %"struct.pbrt::StatIntDistribution", ptr %1, i32 0, i32 0
  %2 = load i64, ptr %sum, align 8
  %3 = call align 8 ptr @llvm.threadlocal.address.p0(ptr align 8 @_ZN4pbrtL10pathLengthE)
  %count = getelementptr inbounds %"struct.pbrt::StatIntDistribution", ptr %3, i32 0, i32 1
  %4 = load i64, ptr %count, align 8
  %5 = call align 8 ptr @llvm.threadlocal.address.p0(ptr align 8 @_ZN4pbrtL10pathLengthE)
  %min = getelementptr inbounds %"struct.pbrt::StatIntDistribution", ptr %5, i32 0, i32 2
  %6 = load i64, ptr %min, align 8
  %7 = call align 8 ptr @llvm.threadlocal.address.p0(ptr align 8 @_ZN4pbrtL10pathLengthE)
  %max = getelementptr inbounds %"struct.pbrt::StatIntDistribution", ptr %7, i32 0, i32 3
  %8 = load i64, ptr %max, align 8
  call void @_ZN4pbrt16StatsAccumulator21ReportIntDistributionEPKcllll(ptr noundef nonnull align 8 dereferenceable(8) %0, ptr noundef @.str.145, i64 noundef %2, i64 noundef %4, i64 noundef %6, i64 noundef %8)
  %9 = call align 8 ptr @llvm.threadlocal.address.p0(ptr align 8 @_ZN4pbrtL10pathLengthE)
  %sum2 = getelementptr inbounds %"struct.pbrt::StatIntDistribution", ptr %9, i32 0, i32 0
  store i64 0, ptr %sum2, align 8
  %10 = call align 8 ptr @llvm.threadlocal.address.p0(ptr align 8 @_ZN4pbrtL10pathLengthE)
  %count3 = getelementptr inbounds %"struct.pbrt::StatIntDistribution", ptr %10, i32 0, i32 1
  store i64 0, ptr %count3, align 8
  %call = call noundef i64 @_ZNSt14numeric_limitsIlE3maxEv() #14
  %11 = call align 8 ptr @llvm.threadlocal.address.p0(ptr align 8 @_ZN4pbrtL10pathLengthE)
  %min4 = getelementptr inbounds %"struct.pbrt::StatIntDistribution", ptr %11, i32 0, i32 2
  store i64 %call, ptr %min4, align 8
  %call5 = call noundef i64 @_ZNSt14numeric_limitsIlE6lowestEv() #14
  %12 = call align 8 ptr @llvm.threadlocal.address.p0(ptr align 8 @_ZN4pbrtL10pathLengthE)
  %max6 = getelementptr inbounds %"struct.pbrt::StatIntDistribution", ptr %12, i32 0, i32 3
  store i64 %call5, ptr %max6, align 8
  ret void
}

; Function Attrs: mustprogress uwtable
define internal void @"_ZN4pbrt4$_318__invokeERNS_16StatsAccumulatorE"(ptr noundef nonnull align 8 dereferenceable(8) %accum) #1 align 2 {
entry:
  %accum.addr = alloca ptr, align 8
  %unused.capture = alloca %class.anon.164, align 1
  store ptr %accum, ptr %accum.addr, align 8
  %0 = load ptr, ptr %accum.addr, align 8
  call void @"_ZNK4pbrt4$_31clERNS_16StatsAccumulatorE"(ptr noundef nonnull align 1 dereferenceable(1) %unused.capture, ptr noundef nonnull align 8 dereferenceable(8) %0)
  ret void
}