; Function Attrs: mustprogress uwtable
define internal void @"_ZN4pbrt4$_318__invokeERNS_16StatsAccumulatorE"(ptr noundef nonnull align 8 dereferenceable(8) %accum) #1 align 2 {
entry:
  %0 = tail call align 8 ptr @llvm.threadlocal.address.p0(ptr align 8 @_ZN4pbrtL10pathLengthE)
  %1 = load i64, ptr %0, align 8
  %count.i = getelementptr inbounds i8, ptr %0, i64 8
  %2 = load i64, ptr %count.i, align 8
  %min.i = getelementptr inbounds i8, ptr %0, i64 16
  %3 = load i64, ptr %min.i, align 8
  %max.i = getelementptr inbounds i8, ptr %0, i64 24
  %4 = load i64, ptr %max.i, align 8
  tail call void @_ZN4pbrt16StatsAccumulator21ReportIntDistributionEPKcllll(ptr noundef nonnull align 8 dereferenceable(8) %accum, ptr noundef nonnull @.str.145, i64 noundef %1, i64 noundef %2, i64 noundef %3, i64 noundef %4)
  tail call void @llvm.memset.p0.i64(ptr noundef nonnull align 8 dereferenceable(16) %0, i8 0, i64 16, i1 false)
  store i64 9223372036854775807, ptr %min.i, align 8
  store i64 -9223372036854775808, ptr %max.i, align 8
  ret void
}